; Function Attrs: mustprogress uwtable
define internal void @_ZN12_GLOBAL__N_110smt_solver11push_paramsEv(ptr noundef nonnull align 8 dereferenceable(1808) %0) unnamed_addr #3 align 2 {
  %2 = getelementptr inbounds nuw i8, ptr %0, i64 992
  tail call void @_ZN10params_ref5resetEv(ptr noundef nonnull align 8 dereferenceable(8) %2)
  %3 = getelementptr inbounds nuw i8, ptr %0, i64 80
  tail call void @_ZN10params_ref4copyERKS_(ptr noundef nonnull align 8 dereferenceable(8) %2, ptr noundef nonnull align 8 dereferenceable(8) %3)
  %4 = getelementptr inbounds nuw i8, ptr %0, i64 120
  %5 = getelementptr inbounds nuw i8, ptr %0, i64 1000
  tail call void @llvm.memcpy.p0.p0.i64(ptr noundef nonnull align 8 dereferenceable(808) %5, ptr noundef nonnull align 8 dereferenceable(808) %4, i64 67, i1 false)
  %6 = getelementptr inbounds nuw i8, ptr %0, i64 1072
  %7 = getelementptr inbounds nuw i8, ptr %0, i64 192
  tail call void @llvm.memcpy.p0.p0.i64(ptr noundef nonnull align 8 dereferenceable(32) %6, ptr noundef nonnull align 8 dereferenceable(32) %7, i64 32, i1 false), !tbaa.struct !359
  %8 = getelementptr inbounds nuw i8, ptr %0, i64 1104
  %9 = getelementptr inbounds nuw i8, ptr %0, i64 224
  tail call void @_ZNSt7__cxx1112basic_stringIcSt11char_traitsIcESaIcEE9_M_assignERKS4_(ptr noundef nonnull align 8 dereferenceable(144) %8, ptr noundef nonnull align 8 dereferenceable(144) %9)
  %10 = getelementptr inbounds nuw i8, ptr %0, i64 1136
  %11 = getelementptr inbounds nuw i8, ptr %0, i64 256
  tail call void @_ZNSt7__cxx1112basic_stringIcSt11char_traitsIcESaIcEE9_M_assignERKS4_(ptr noundef nonnull align 8 dereferenceable(32) %10, ptr noundef nonnull align 8 dereferenceable(32) %11)
  %12 = getelementptr inbounds nuw i8, ptr %0, i64 1168
  %13 = getelementptr inbounds nuw i8, ptr %0, i64 288
  tail call void @llvm.memcpy.p0.p0.i64(ptr noundef nonnull align 8 dereferenceable(80) %12, ptr noundef nonnull align 8 dereferenceable(80) %13, i64 80, i1 false)
  %14 = getelementptr inbounds nuw i8, ptr %0, i64 1248
  %15 = getelementptr inbounds nuw i8, ptr %0, i64 368
  tail call void @llvm.memcpy.p0.p0.i64(ptr noundef nonnull align 8 dereferenceable(147) %14, ptr noundef nonnull align 8 dereferenceable(147) %15, i64 147, i1 false), !tbaa.struct !363
  %16 = getelementptr inbounds nuw i8, ptr %0, i64 1396
  %17 = getelementptr inbounds nuw i8, ptr %0, i64 516
  tail call void @llvm.memcpy.p0.p0.i64(ptr noundef nonnull align 4 dereferenceable(25) %16, ptr noundef nonnull align 4 dereferenceable(25) %17, i64 25, i1 false), !tbaa.struct !368
  %18 = getelementptr inbounds nuw i8, ptr %0, i64 1424
  %19 = getelementptr inbounds nuw i8, ptr %0, i64 544
  tail call void @llvm.memcpy.p0.p0.i64(ptr noundef nonnull align 8 dereferenceable(20) %18, ptr noundef nonnull align 8 dereferenceable(20) %19, i64 20, i1 false), !tbaa.struct !370
  %20 = getelementptr inbounds nuw i8, ptr %0, i64 1448
  %21 = getelementptr inbounds nuw i8, ptr %0, i64 568
  tail call void @llvm.memcpy.p0.p0.i64(ptr noundef nonnull align 8 dereferenceable(38) %20, ptr noundef nonnull align 8 dereferenceable(38) %21, i64 38, i1 false), !tbaa.struct !372
  %22 = getelementptr inbounds nuw i8, ptr %0, i64 1488
  %23 = getelementptr inbounds nuw i8, ptr %0, i64 608
  tail call void @llvm.memcpy.p0.p0.i64(ptr noundef nonnull align 8 dereferenceable(12) %22, ptr noundef nonnull align 8 dereferenceable(12) %23, i64 12, i1 false), !tbaa.struct !373
  %24 = getelementptr inbounds nuw i8, ptr %0, i64 1500
  %25 = getelementptr inbounds nuw i8, ptr %0, i64 620
  tail call void @llvm.memcpy.p0.p0.i64(ptr noundef nonnull align 4 dereferenceable(5) %24, ptr noundef nonnull align 4 dereferenceable(5) %25, i64 5, i1 false), !tbaa.struct !374
  %26 = getelementptr inbounds nuw i8, ptr %0, i64 1508
  %27 = getelementptr inbounds nuw i8, ptr %0, i64 628
  %28 = load i32, ptr %27, align 4, !tbaa !248
  store i32 %28, ptr %26, align 4, !tbaa !248
  %29 = getelementptr inbounds nuw i8, ptr %0, i64 1512
  %30 = getelementptr inbounds nuw i8, ptr %0, i64 632
  tail call void @llvm.memcpy.p0.p0.i64(ptr noundef nonnull align 8 dereferenceable(296) %29, ptr noundef nonnull align 8 dereferenceable(296) %30, i64 296, i1 false)
  ret void
}